; Function Attrs: mustprogress uwtable
define hidden void @_ZN5osgeo4proj4util11GenericNameC2Ev(ptr nocapture noundef nonnull align 8 dereferenceable(24) %0) unnamed_addr #0 align 2 personality ptr @__gxx_personality_v0 {
  store ptr getelementptr inbounds inrange(-16, 16) ({ [4 x ptr] }, ptr @_ZTVN5osgeo4proj4util10BaseObjectE, i64 0, i32 0, i64 2), ptr %0, align 8
  %2 = getelementptr inbounds i8, ptr %0, i64 8
  tail call void @llvm.experimental.noalias.scope.decl(metadata !102)
  %3 = tail call noalias noundef nonnull dereferenceable(16) ptr @_Znwm(i64 noundef 16) #23, !noalias !102
  tail call void @llvm.memset.p0.i64(ptr noundef nonnull align 8 dereferenceable(16) %3, i8 0, i64 16, i1 false), !noalias !102
  store ptr %3, ptr %2, align 8, !alias.scope !102
  store ptr getelementptr inbounds inrange(-16, 40) ({ [7 x ptr] }, ptr @_ZTVN5osgeo4proj4util11GenericNameE, i64 0, i32 0, i64 2), ptr %0, align 8
  %4 = invoke noalias noundef nonnull dereferenceable(1) ptr @_Znwm(i64 noundef 1) #23
          to label %5 unwind label %7

5:                                                ; preds = %1
  %6 = getelementptr inbounds i8, ptr %0, i64 16
  store ptr %4, ptr %6, align 8, !alias.scope !105
  ret void

7:                                                ; preds = %1
  %8 = landingpad { ptr, i32 }
          cleanup
  tail call void @_ZN5osgeo4proj4util10BaseObjectD2Ev(ptr noundef nonnull align 8 dereferenceable(16) %0) #24
  resume { ptr, i32 } %8
}